target datalayout = "e-m:e-p270:32:32-p271:32:32-p272:64:64-i64:64-i128:128-f80:128-n8:16:32:64-S128"
target triple = "x86_64-pc-linux-gnu"

%struct.wtap_reader = type { i32, i64, i64, i32, %struct.wtap_reader_buf, %struct.wtap_reader_buf, i8, i64, i64, i32, i32, i8, i64, i8, i32, ptr, %struct.z_stream_s, i8, ptr, ptr, %struct.LZ4F_frameInfo_t, [19 x i8], ptr, ptr }
%struct.wtap_reader_buf = type { ptr, ptr, i32 }
%struct.z_stream_s = type { ptr, i32, i64, ptr, i32, i64, ptr, ptr, ptr, ptr, ptr, i32, i64, i64 }
%struct.LZ4F_frameInfo_t = type { i32, i32, i32, i32, i64, i32, i32 }
%struct.fast_seek_point = type { i64, i64, i32, %union.anon }
%union.anon = type { %struct.anon.0 }
%struct.anon.0 = type { %struct.LZ4F_frameInfo_t, [19 x i8], [65536 x i8] }
%struct._GPtrArray = type { ptr, i32 }

; Function Attrs: alwaysinline nounwind
define internal ptr @memcpy.inline(ptr noalias %0, ptr noalias %1, i64 %2) #10 {
  %4 = alloca ptr, align 8
  %5 = alloca ptr, align 8
  %6 = alloca i64, align 8
  store ptr %0, ptr %4, align 8
  store ptr %1, ptr %5, align 8
  store i64 %2, ptr %6, align 8
  %7 = load ptr, ptr %4, align 8
  %8 = load ptr, ptr %5, align 8
  %9 = load i64, ptr %6, align 8
  %10 = load ptr, ptr %4, align 8
  %11 = call i64 @llvm.objectsize.i64.p0(ptr %10, i1 false, i1 true, i1 true)
  %12 = call ptr @__memcpy_chk(ptr noundef %7, ptr noundef %8, i64 noundef %9, i64 noundef %11) #14
  ret ptr %12
}

; Function Attrs: null_pointer_is_valid sspstrong uwtable
define internal void @fast_seek_header(ptr noundef %0, i64 noundef %1, i64 noundef %2, i32 noundef %3) #0 {
  %5 = alloca ptr, align 8
  %6 = alloca i64, align 8
  %7 = alloca i64, align 8
  %8 = alloca i32, align 4
  %9 = alloca ptr, align 8
  %10 = alloca i32, align 4
  %11 = alloca ptr, align 8
  %12 = alloca i64, align 8
  %13 = alloca i64, align 8
  %14 = alloca ptr, align 8
  %15 = alloca ptr, align 8
  store ptr %0, ptr %5, align 8
  store i64 %1, ptr %6, align 8
  store i64 %2, ptr %7, align 8
  store i32 %3, ptr %8, align 4
  call void @llvm.lifetime.start.p0(i64 8, ptr %9) #14
  store ptr null, ptr %9, align 8
  %16 = load ptr, ptr %5, align 8
  %17 = getelementptr inbounds nuw %struct.wtap_reader, ptr %16, i32 0, i32 22
  %18 = load ptr, ptr %17, align 8
  %19 = icmp ne ptr %18, null
  br i1 %19, label %21, label %20

20:                                               ; preds = %4
  store i32 1, ptr %10, align 4
  br label %113

21:                                               ; preds = %4
  %22 = load ptr, ptr %5, align 8
  %23 = getelementptr inbounds nuw %struct.wtap_reader, ptr %22, i32 0, i32 22
  %24 = load ptr, ptr %23, align 8
  %25 = getelementptr inbounds nuw %struct._GPtrArray, ptr %24, i32 0, i32 1
  %26 = load i32, ptr %25, align 8
  %27 = icmp ne i32 %26, 0
  br i1 %27, label %28, label %43

28:                                               ; preds = %21
  %29 = load ptr, ptr %5, align 8
  %30 = getelementptr inbounds nuw %struct.wtap_reader, ptr %29, i32 0, i32 22
  %31 = load ptr, ptr %30, align 8
  %32 = getelementptr inbounds nuw %struct._GPtrArray, ptr %31, i32 0, i32 0
  %33 = load ptr, ptr %32, align 8
  %34 = load ptr, ptr %5, align 8
  %35 = getelementptr inbounds nuw %struct.wtap_reader, ptr %34, i32 0, i32 22
  %36 = load ptr, ptr %35, align 8
  %37 = getelementptr inbounds nuw %struct._GPtrArray, ptr %36, i32 0, i32 1
  %38 = load i32, ptr %37, align 8
  %39 = sub i32 %38, 1
  %40 = zext i32 %39 to i64
  %41 = getelementptr ptr, ptr %33, i64 %40
  %42 = load ptr, ptr %41, align 8
  store ptr %42, ptr %9, align 8
  br label %43

43:                                               ; preds = %28, %21
  %44 = load ptr, ptr %9, align 8
  %45 = icmp ne ptr %44, null
  br i1 %45, label %46, label %52

46:                                               ; preds = %43
  %47 = load ptr, ptr %9, align 8
  %48 = getelementptr inbounds nuw %struct.fast_seek_point, ptr %47, i32 0, i32 0
  %49 = load i64, ptr %48, align 8
  %50 = load i64, ptr %7, align 8
  %51 = icmp slt i64 %49, %50
  br i1 %51, label %52, label %112

52:                                               ; preds = %46, %43
  call void @llvm.lifetime.start.p0(i64 8, ptr %11) #14
  call void @llvm.lifetime.start.p0(i64 8, ptr %12) #14
  store i64 1, ptr %12, align 8
  call void @llvm.lifetime.start.p0(i64 8, ptr %13) #14
  store i64 65616, ptr %13, align 8
  call void @llvm.lifetime.start.p0(i64 8, ptr %14) #14
  %53 = load i64, ptr %13, align 8
  %54 = icmp eq i64 %53, 1
  br i1 %54, label %55, label %58

55:                                               ; preds = %52
  %56 = load i64, ptr %12, align 8
  %57 = call noalias ptr @g_malloc(i64 noundef %56) #16
  store ptr %57, ptr %14, align 8
  br label %79

58:                                               ; preds = %52
  %59 = load i64, ptr %12, align 8
  %60 = call i1 @llvm.is.constant.i64(i64 %59)
  br i1 %60, label %61, label %74

61:                                               ; preds = %58
  %62 = load i64, ptr %13, align 8
  %63 = icmp eq i64 %62, 0
  br i1 %63, label %69, label %64

64:                                               ; preds = %61
  %65 = load i64, ptr %12, align 8
  %66 = load i64, ptr %13, align 8
  %67 = udiv i64 -1, %66
  %68 = icmp ule i64 %65, %67
  br i1 %68, label %69, label %74

69:                                               ; preds = %64, %61
  %70 = load i64, ptr %12, align 8
  %71 = load i64, ptr %13, align 8
  %72 = mul i64 %70, %71
  %73 = call noalias ptr @g_malloc(i64 noundef %72) #16
  store ptr %73, ptr %14, align 8
  br label %78

74:                                               ; preds = %64, %58
  %75 = load i64, ptr %12, align 8
  %76 = load i64, ptr %13, align 8
  %77 = call noalias ptr @g_malloc_n(i64 noundef %75, i64 noundef %76) #19
  store ptr %77, ptr %14, align 8
  br label %78

78:                                               ; preds = %74, %69
  br label %79

79:                                               ; preds = %78, %55
  %80 = load ptr, ptr %14, align 8
  store ptr %80, ptr %15, align 8
  call void @llvm.lifetime.end.p0(i64 8, ptr %14) #14
  call void @llvm.lifetime.end.p0(i64 8, ptr %13) #14
  call void @llvm.lifetime.end.p0(i64 8, ptr %12) #14
  %81 = load ptr, ptr %15, align 8
  store ptr %81, ptr %11, align 8
  %82 = load i64, ptr %6, align 8
  %83 = load ptr, ptr %11, align 8
  %84 = getelementptr inbounds nuw %struct.fast_seek_point, ptr %83, i32 0, i32 1
  store i64 %82, ptr %84, align 8
  %85 = load i64, ptr %7, align 8
  %86 = load ptr, ptr %11, align 8
  %87 = getelementptr inbounds nuw %struct.fast_seek_point, ptr %86, i32 0, i32 0
  store i64 %85, ptr %87, align 8
  %88 = load i32, ptr %8, align 4
  %89 = load ptr, ptr %11, align 8
  %90 = getelementptr inbounds nuw %struct.fast_seek_point, ptr %89, i32 0, i32 2
  store i32 %88, ptr %90, align 8
  %91 = load i32, ptr %8, align 4
  %92 = icmp eq i32 %91, 5
  br i1 %92, label %93, label %107

93:                                               ; preds = %79
  %94 = load ptr, ptr %11, align 8
  %95 = getelementptr inbounds nuw %struct.fast_seek_point, ptr %94, i32 0, i32 3
  %96 = getelementptr inbounds nuw %struct.anon.0, ptr %95, i32 0, i32 0
  %97 = load ptr, ptr %5, align 8
  %98 = getelementptr inbounds nuw %struct.wtap_reader, ptr %97, i32 0, i32 20
  call void @llvm.memcpy.p0.p0.i64(ptr align 8 %96, ptr align 8 %98, i64 32, i1 false)
  %99 = load ptr, ptr %11, align 8
  %100 = getelementptr inbounds nuw %struct.fast_seek_point, ptr %99, i32 0, i32 3
  %101 = getelementptr inbounds nuw %struct.anon.0, ptr %100, i32 0, i32 1
  %102 = getelementptr inbounds [19 x i8], ptr %101, i64 0, i64 0
  %103 = load ptr, ptr %5, align 8
  %104 = getelementptr inbounds nuw %struct.wtap_reader, ptr %103, i32 0, i32 21
  %105 = getelementptr inbounds [19 x i8], ptr %104, i64 0, i64 0
  %106 = call ptr @memcpy.inline(ptr noundef %102, ptr noundef %105, i64 noundef 19) #14
  br label %107

107:                                              ; preds = %93, %79
  %108 = load ptr, ptr %5, align 8
  %109 = getelementptr inbounds nuw %struct.wtap_reader, ptr %108, i32 0, i32 22
  %110 = load ptr, ptr %109, align 8
  %111 = load ptr, ptr %11, align 8
  call void @g_ptr_array_add(ptr noundef %110, ptr noundef %111)
  call void @llvm.lifetime.end.p0(i64 8, ptr %11) #14
  br label %112

112:                                              ; preds = %107, %46
  store i32 0, ptr %10, align 4
  br label %113

113:                                              ; preds = %112, %20
  call void @llvm.lifetime.end.p0(i64 8, ptr %9) #14
  %114 = load i32, ptr %10, align 4
  switch i32 %114, label %116 [
    i32 0, label %115
    i32 1, label %115
  ]

115:                                              ; preds = %113, %113
  ret void

116:                                              ; preds = %113
  unreachable
}