; Function Attrs: null_pointer_is_valid sspstrong uwtable
define internal fastcc void @fast_seek_header(ptr noundef readonly captures(none) %0, i64 noundef %1, i64 noundef %2, i32 noundef range(i32 1, 6) %3) unnamed_addr #0 {
  %5 = getelementptr inbounds nuw i8, ptr %0, i64 336
  %6 = load ptr, ptr %5, align 8
  %.not = icmp eq ptr %6, null
  br i1 %.not, label %30, label %7

7:                                                ; preds = %4
  %8 = getelementptr inbounds nuw i8, ptr %6, i64 8
  %9 = load i32, ptr %8, align 8
  %.not34 = icmp eq i32 %9, 0
  br i1 %.not34, label %.thread, label %10

10:                                               ; preds = %7
  %11 = load ptr, ptr %6, align 8
  %12 = add i32 %9, -1
  %13 = zext i32 %12 to i64
  %14 = getelementptr ptr, ptr %11, i64 %13
  %15 = load ptr, ptr %14, align 8
  %.not35 = icmp eq ptr %15, null
  br i1 %.not35, label %.thread, label %16

16:                                               ; preds = %10
  %17 = load i64, ptr %15, align 8
  %18 = icmp slt i64 %17, %2
  br i1 %18, label %.thread, label %30

.thread:                                          ; preds = %7, %16, %10
  %19 = tail call noalias dereferenceable_or_null(65616) ptr @g_malloc(i64 noundef 65616) #22
  %20 = getelementptr inbounds nuw i8, ptr %19, i64 8
  store i64 %1, ptr %20, align 8
  store i64 %2, ptr %19, align 8
  %21 = getelementptr inbounds nuw i8, ptr %19, i64 16
  store i32 %3, ptr %21, align 8
  %22 = icmp eq i32 %3, 5
  br i1 %22, label %23, label %28

23:                                               ; preds = %.thread
  %24 = getelementptr inbounds nuw i8, ptr %19, i64 24
  %25 = getelementptr inbounds nuw i8, ptr %0, i64 280
  tail call void @llvm.memcpy.p0.p0.i64(ptr noundef nonnull align 8 dereferenceable(32) %24, ptr noundef nonnull align 8 dereferenceable(32) %25, i64 32, i1 false)
  %26 = getelementptr inbounds nuw i8, ptr %19, i64 56
  %27 = getelementptr inbounds nuw i8, ptr %0, i64 312
  tail call void @llvm.memcpy.p0.p0.i64(ptr noundef nonnull align 1 dereferenceable(19) %26, ptr noundef nonnull align 1 dereferenceable(19) %27, i64 noundef 19, i1 noundef false) #21
  br label %28

28:                                               ; preds = %23, %.thread
  %29 = load ptr, ptr %5, align 8
  tail call void @g_ptr_array_add(ptr noundef %29, ptr noundef %19)
  br label %30

30:                                               ; preds = %16, %28, %4
  ret void
}